; Function Attrs: mustprogress nounwind uwtable
define dso_local noundef i32 @_ZN4node6crypto17DHKeyExportTraits8DoExportESt10shared_ptrINS0_13KeyObjectDataEENS0_18WebCryptoKeyFormatERKNS0_17DHKeyExportConfigEPNS0_10ByteSourceE(ptr nocapture noundef readonly %key_data, i32 noundef %format, ptr nocapture nonnull readnone align 8 %params, ptr noundef %out) local_unnamed_addr #3 align 2 {
entry:
  %0 = load ptr, ptr %key_data, align 8
  %call1 = tail call noundef i32 @_ZNK4node6crypto13KeyObjectData10GetKeyTypeEv(ptr noundef nonnull align 8 dereferenceable(72) %0) #18
  %cmp.not = icmp eq i32 %call1, 0
  br i1 %cmp.not, label %do.body4, label %do.end5

do.body4:                                         ; preds = %entry
  tail call void @_ZN4node6AssertERKNS_13AssertionInfoE(ptr noundef nonnull align 8 dereferenceable(24) @_ZZN4node6crypto17DHKeyExportTraits8DoExportESt10shared_ptrINS0_13KeyObjectDataEENS0_18WebCryptoKeyFormatERKNS0_17DHKeyExportConfigEPNS0_10ByteSourceEE4args) #18
  tail call void @abort() #20
  unreachable

do.end5:                                          ; preds = %entry
  switch i32 %format, label %do.body21 [
    i32 1, label %sw.bb
    i32 2, label %sw.bb13
  ]

sw.bb:                                            ; preds = %do.end5
  %1 = load ptr, ptr %key_data, align 8
  %call7 = tail call noundef i32 @_ZNK4node6crypto13KeyObjectData10GetKeyTypeEv(ptr noundef nonnull align 8 dereferenceable(72) %1) #18
  %cmp8.not = icmp eq i32 %call7, 2
  br i1 %cmp8.not, label %if.end10, label %return

if.end10:                                         ; preds = %sw.bb
  %2 = load ptr, ptr %key_data, align 8
  %call12 = tail call noundef i32 @_ZN4node6crypto17PKEY_PKCS8_ExportEPNS0_13KeyObjectDataEPNS0_10ByteSourceE(ptr noundef %2, ptr noundef %out) #18
  br label %return

sw.bb13:                                          ; preds = %do.end5
  %3 = load ptr, ptr %key_data, align 8
  %call15 = tail call noundef i32 @_ZNK4node6crypto13KeyObjectData10GetKeyTypeEv(ptr noundef nonnull align 8 dereferenceable(72) %3) #18
  %cmp16.not = icmp eq i32 %call15, 1
  br i1 %cmp16.not, label %if.end18, label %return

if.end18:                                         ; preds = %sw.bb13
  %4 = load ptr, ptr %key_data, align 8
  %call20 = tail call noundef i32 @_ZN4node6crypto16PKEY_SPKI_ExportEPNS0_13KeyObjectDataEPNS0_10ByteSourceE(ptr noundef %4, ptr noundef %out) #18
  br label %return

do.body21:                                        ; preds = %do.end5
  tail call void @_ZN4node6AssertERKNS_13AssertionInfoE(ptr noundef nonnull align 8 dereferenceable(24) @_ZZN4node6crypto17DHKeyExportTraits8DoExportESt10shared_ptrINS0_13KeyObjectDataEENS0_18WebCryptoKeyFormatERKNS0_17DHKeyExportConfigEPNS0_10ByteSourceEE4args_0) #18
  tail call void @abort() #20
  unreachable

return:                                           ; preds = %sw.bb13, %sw.bb, %if.end18, %if.end10
  %retval.0 = phi i32 [ %call20, %if.end18 ], [ %call12, %if.end10 ], [ 1, %sw.bb ], [ 1, %sw.bb13 ]
  ret i32 %retval.0
}